; Function Attrs: nounwind uwtable
define internal void @RegisterCatcacheInvalidation(i32 noundef %0, i32 noundef %1, i32 noundef %2, ptr noundef captures(none) %3) #0 {
  %.sroa.4.i = alloca [3 x i8], align 1
  call void @llvm.lifetime.start.p0(i64 3, ptr nonnull %.sroa.4.i)
  %5 = getelementptr inbounds nuw i8, ptr %3, i64 8
  %6 = load i32, ptr %5, align 4
  %7 = load i32, ptr @InvalMessageArrays.1, align 8
  %.not.i.i = icmp slt i32 %6, %7
  %.pre.i.i = load ptr, ptr @InvalMessageArrays.0, align 16
  br i1 %.not.i.i, label %AddCatcacheInvalidationMessage.exit, label %8

8:                                                ; preds = %4
  %9 = icmp eq ptr %.pre.i.i, null
  br i1 %9, label %10, label %13

10:                                               ; preds = %8
  %11 = load ptr, ptr @TopTransactionContext, align 8
  %12 = tail call ptr @MemoryContextAlloc(ptr noundef %11, i64 noundef 512) #7
  br label %.sink.split.i.i

13:                                               ; preds = %8
  %14 = shl i32 %7, 1
  %15 = sext i32 %14 to i64
  %16 = shl nsw i64 %15, 4
  %17 = tail call ptr @repalloc(ptr noundef nonnull %.pre.i.i, i64 noundef %16) #7
  br label %.sink.split.i.i

.sink.split.i.i:                                  ; preds = %13, %10
  %.sink21.i.i = phi ptr [ %12, %10 ], [ %17, %13 ]
  %.sink.i.i = phi i32 [ 32, %10 ], [ %14, %13 ]
  store ptr %.sink21.i.i, ptr @InvalMessageArrays.0, align 16
  store i32 %.sink.i.i, ptr @InvalMessageArrays.1, align 8
  br label %AddCatcacheInvalidationMessage.exit

AddCatcacheInvalidationMessage.exit:              ; preds = %4, %.sink.split.i.i
  %18 = phi ptr [ %.pre.i.i, %4 ], [ %.sink21.i.i, %.sink.split.i.i ]
  %19 = trunc i32 %0 to i8
  %20 = sext i32 %6 to i64
  %21 = getelementptr inbounds %union.SharedInvalidationMessage, ptr %18, i64 %20
  store i8 %19, ptr %21, align 4
  %.sroa.4.0..sroa_idx.i = getelementptr inbounds nuw i8, ptr %21, i64 1
  call void @llvm.memcpy.p0.p0.i64(ptr noundef nonnull align 1 dereferenceable(3) %.sroa.4.0..sroa_idx.i, ptr noundef nonnull align 1 dereferenceable(3) %.sroa.4.i, i64 3, i1 false)
  %.sroa.43.0..sroa_idx.i = getelementptr inbounds nuw i8, ptr %21, i64 4
  store i32 %2, ptr %.sroa.43.0..sroa_idx.i, align 4
  %.sroa.5.0..sroa_idx.i = getelementptr inbounds nuw i8, ptr %21, i64 8
  store i32 %1, ptr %.sroa.5.0..sroa_idx.i, align 4
  %22 = load i32, ptr %5, align 4
  %23 = add i32 %22, 1
  store i32 %23, ptr %5, align 4
  call void @llvm.lifetime.end.p0(i64 3, ptr nonnull %.sroa.4.i)
  ret void
}